target datalayout = "e-m:e-p270:32:32-p271:32:32-p272:64:64-i64:64-i128:128-f80:128-n8:16:32:64-S128"
target triple = "x86_64-pc-linux-gnu"

%struct.SDL_TimerData = type { %struct.SDL_InitState, ptr, ptr, ptr, [128 x i8], i32, ptr, ptr, ptr, %struct.SDL_AtomicInt, ptr }
%struct.SDL_InitState = type { %struct.SDL_AtomicInt, i64, ptr }
%struct.SDL_AtomicInt = type { i32 }

@SDL_timer_data = internal global %struct.SDL_TimerData zeroinitializer, align 8
@.str = private unnamed_addr constant [9 x i8] c"SDLTimer\00", align 1

; Function Attrs: nounwind uwtable
define hidden zeroext i1 @SDL_InitTimers() #0 {
  %1 = alloca i1, align 1
  %2 = alloca ptr, align 8
  %3 = alloca i32, align 4
  call void @llvm.lifetime.start.p0(i64 8, ptr %2) #3
  store ptr @SDL_timer_data, ptr %2, align 8
  %4 = load ptr, ptr %2, align 8
  %5 = getelementptr inbounds nuw %struct.SDL_TimerData, ptr %4, i32 0, i32 0
  %6 = call zeroext i1 @SDL_ShouldInit_REAL(ptr noundef %5)
  br i1 %6, label %8, label %7

7:                                                ; preds = %0
  store i1 true, ptr %1, align 1
  store i32 1, ptr %3, align 4
  br label %45

8:                                                ; preds = %0
  %9 = call ptr @SDL_CreateMutex_REAL()
  %10 = load ptr, ptr %2, align 8
  %11 = getelementptr inbounds nuw %struct.SDL_TimerData, ptr %10, i32 0, i32 3
  store ptr %9, ptr %11, align 8
  %12 = load ptr, ptr %2, align 8
  %13 = getelementptr inbounds nuw %struct.SDL_TimerData, ptr %12, i32 0, i32 3
  %14 = load ptr, ptr %13, align 8
  %15 = icmp ne ptr %14, null
  br i1 %15, label %17, label %16

16:                                               ; preds = %8
  br label %42

17:                                               ; preds = %8
  %18 = call ptr @SDL_CreateSemaphore_REAL(i32 noundef 0)
  %19 = load ptr, ptr %2, align 8
  %20 = getelementptr inbounds nuw %struct.SDL_TimerData, ptr %19, i32 0, i32 6
  store ptr %18, ptr %20, align 8
  %21 = load ptr, ptr %2, align 8
  %22 = getelementptr inbounds nuw %struct.SDL_TimerData, ptr %21, i32 0, i32 6
  %23 = load ptr, ptr %22, align 8
  %24 = icmp ne ptr %23, null
  br i1 %24, label %26, label %25

25:                                               ; preds = %17
  br label %42

26:                                               ; preds = %17
  %27 = load ptr, ptr %2, align 8
  %28 = getelementptr inbounds nuw %struct.SDL_TimerData, ptr %27, i32 0, i32 9
  %29 = call i32 @SDL_SetAtomicInt_REAL(ptr noundef %28, i32 noundef 1)
  %30 = load ptr, ptr %2, align 8
  %31 = call ptr @SDL_CreateThreadRuntime_REAL(ptr noundef @SDL_TimerThread, ptr noundef @.str, ptr noundef %30, ptr noundef null, ptr noundef null)
  %32 = load ptr, ptr %2, align 8
  %33 = getelementptr inbounds nuw %struct.SDL_TimerData, ptr %32, i32 0, i32 1
  store ptr %31, ptr %33, align 8
  %34 = load ptr, ptr %2, align 8
  %35 = getelementptr inbounds nuw %struct.SDL_TimerData, ptr %34, i32 0, i32 1
  %36 = load ptr, ptr %35, align 8
  %37 = icmp ne ptr %36, null
  br i1 %37, label %39, label %38

38:                                               ; preds = %26
  br label %42

39:                                               ; preds = %26
  %40 = load ptr, ptr %2, align 8
  %41 = getelementptr inbounds nuw %struct.SDL_TimerData, ptr %40, i32 0, i32 0
  call void @SDL_SetInitialized_REAL(ptr noundef %41, i1 noundef zeroext true)
  store i1 true, ptr %1, align 1
  store i32 1, ptr %3, align 4
  br label %45

42:                                               ; preds = %38, %25, %16
  %43 = load ptr, ptr %2, align 8
  %44 = getelementptr inbounds nuw %struct.SDL_TimerData, ptr %43, i32 0, i32 0
  call void @SDL_SetInitialized_REAL(ptr noundef %44, i1 noundef zeroext true)
  call void @SDL_QuitTimers()
  store i1 false, ptr %1, align 1
  store i32 1, ptr %3, align 4
  br label %45

45:                                               ; preds = %42, %39, %7
  call void @llvm.lifetime.end.p0(i64 8, ptr %2) #3
  %46 = load i1, ptr %1, align 1
  ret i1 %46
}