; Function Attrs: nounwind uwtable
define hidden noundef zeroext i1 @SDL_InitTimers() local_unnamed_addr #0 {
  %1 = tail call zeroext i1 @SDL_ShouldInit_REAL(ptr noundef nonnull @SDL_timer_data) #3
  br i1 %1, label %2, label %11

2:                                                ; preds = %0
  %3 = tail call ptr @SDL_CreateMutex_REAL() #3
  store ptr %3, ptr getelementptr inbounds nuw (i8, ptr @SDL_timer_data, i64 40), align 8
  %.not = icmp eq ptr %3, null
  br i1 %.not, label %10, label %4

4:                                                ; preds = %2
  %5 = tail call ptr @SDL_CreateSemaphore_REAL(i32 noundef 0) #3
  store ptr %5, ptr getelementptr inbounds nuw (i8, ptr @SDL_timer_data, i64 184), align 8
  %.not12 = icmp eq ptr %5, null
  br i1 %.not12, label %10, label %6

6:                                                ; preds = %4
  %7 = tail call i32 @SDL_SetAtomicInt_REAL(ptr noundef nonnull getelementptr inbounds nuw (i8, ptr @SDL_timer_data, i64 208), i32 noundef 1) #3
  %8 = tail call ptr @SDL_CreateThreadRuntime_REAL(ptr noundef nonnull @SDL_TimerThread, ptr noundef nonnull @.str, ptr noundef nonnull @SDL_timer_data, ptr noundef null, ptr noundef null) #3
  store ptr %8, ptr getelementptr inbounds nuw (i8, ptr @SDL_timer_data, i64 24), align 8
  %.not13 = icmp eq ptr %8, null
  br i1 %.not13, label %10, label %9

9:                                                ; preds = %6
  tail call void @SDL_SetInitialized_REAL(ptr noundef nonnull @SDL_timer_data, i1 noundef zeroext true) #3
  br label %11

10:                                               ; preds = %6, %4, %2
  tail call void @SDL_SetInitialized_REAL(ptr noundef nonnull @SDL_timer_data, i1 noundef zeroext true) #3
  tail call void @SDL_QuitTimers()
  br label %11

11:                                               ; preds = %0, %10, %9
  %.0 = phi i1 [ true, %9 ], [ false, %10 ], [ true, %0 ]
  ret i1 %.0
}